target datalayout = "e-m:e-p270:32:32-p271:32:32-p272:64:64-i64:64-i128:128-f80:128-n8:16:32:64-S128"
target triple = "x86_64-pc-linux-gnu"

@.str = private unnamed_addr constant [42 x i8] c"TIME(%d)%s precision must not be negative\00", align 1
@.str.1 = private unnamed_addr constant [16 x i8] c" WITH TIME ZONE\00", align 1
@.str.2 = private unnamed_addr constant [1 x i8] zeroinitializer, align 1
@.str.3 = private unnamed_addr constant [7 x i8] c"date.c\00", align 1
@__func__.anytime_typmod_check = private unnamed_addr constant [21 x i8] c"anytime_typmod_check\00", align 1
@.str.4 = private unnamed_addr constant [52 x i8] c"TIME(%d)%s precision reduced to maximum allowed, %d\00", align 1

; Function Attrs: nounwind uwtable
define dso_local i32 @anytime_typmod_check(i1 noundef zeroext %0, i32 noundef %1) #0 {
  %3 = alloca i8, align 1
  %4 = alloca i32, align 4
  %5 = zext i1 %0 to i8
  store i8 %5, ptr %3, align 1
  store i32 %1, ptr %4, align 4
  %6 = load i32, ptr %4, align 4
  %7 = icmp slt i32 %6, 0
  br i1 %7, label %8, label %23

8:                                                ; preds = %2
  br label %9

9:                                                ; preds = %8
  br i1 true, label %10, label %12

10:                                               ; preds = %9
  %11 = call zeroext i1 @errstart_cold(i32 noundef 21, ptr noundef null) #8
  br i1 %11, label %14, label %21

12:                                               ; preds = %9
  %13 = call zeroext i1 @errstart(i32 noundef 21, ptr noundef null)
  br i1 %13, label %14, label %21

14:                                               ; preds = %12, %10
  %15 = call i32 @errcode(i32 noundef 50856066)
  %16 = load i32, ptr %4, align 4
  %17 = load i8, ptr %3, align 1, !range !4, !noundef !5
  %18 = trunc i8 %17 to i1
  %19 = select i1 %18, ptr @.str.1, ptr @.str.2
  %20 = call i32 (ptr, ...) @errmsg(ptr noundef @.str, i32 noundef %16, ptr noundef %19)
  call void @errfinish(ptr noundef @.str.3, i32 noundef 77, ptr noundef @__func__.anytime_typmod_check)
  br label %21

21:                                               ; preds = %14, %12, %10
  unreachable

22:                                               ; No predecessors!
  br label %23

23:                                               ; preds = %22, %2
  %24 = load i32, ptr %4, align 4
  %25 = icmp sgt i32 %24, 6
  br i1 %25, label %26, label %41

26:                                               ; preds = %23
  br label %27

27:                                               ; preds = %26
  br i1 false, label %28, label %30

28:                                               ; preds = %27
  %29 = call zeroext i1 @errstart_cold(i32 noundef 19, ptr noundef null) #8
  br i1 %29, label %32, label %39

30:                                               ; preds = %27
  %31 = call zeroext i1 @errstart(i32 noundef 19, ptr noundef null)
  br i1 %31, label %32, label %39

32:                                               ; preds = %30, %28
  %33 = call i32 @errcode(i32 noundef 50856066)
  %34 = load i32, ptr %4, align 4
  %35 = load i8, ptr %3, align 1, !range !4, !noundef !5
  %36 = trunc i8 %35 to i1
  %37 = select i1 %36, ptr @.str.1, ptr @.str.2
  %38 = call i32 (ptr, ...) @errmsg(ptr noundef @.str.4, i32 noundef %34, ptr noundef %37, i32 noundef 6)
  call void @errfinish(ptr noundef @.str.3, i32 noundef 84, ptr noundef @__func__.anytime_typmod_check)
  br label %39

39:                                               ; preds = %32, %30, %28
  br label %40

40:                                               ; preds = %39
  store i32 6, ptr %4, align 4
  br label %41

41:                                               ; preds = %40, %23
  %42 = load i32, ptr %4, align 4
  ret i32 %42
}