; Function Attrs: nounwind uwtable
define dso_local range(i32 0, 7) i32 @anytime_typmod_check(i1 noundef zeroext %0, i32 noundef %1) local_unnamed_addr #0 {
  %3 = icmp slt i32 %1, 0
  br i1 %3, label %4, label %9

4:                                                ; preds = %2
  %5 = tail call zeroext i1 @errstart_cold(i32 noundef 21, ptr noundef null) #15
  tail call void @llvm.assume(i1 %5)
  %6 = tail call i32 @errcode(i32 noundef 50856066) #16
  %7 = select i1 %0, ptr @.str.1, ptr @.str.2
  %8 = tail call i32 (ptr, ...) @errmsg(ptr noundef nonnull @.str, i32 noundef %1, ptr noundef nonnull %7) #16
  tail call void @errfinish(ptr noundef nonnull @.str.3, i32 noundef 77, ptr noundef nonnull @__func__.anytime_typmod_check) #16
  unreachable

9:                                                ; preds = %2
  %10 = icmp samesign ugt i32 %1, 6
  br i1 %10, label %11, label %17

11:                                               ; preds = %9
  %12 = tail call zeroext i1 @errstart(i32 noundef 19, ptr noundef null) #16
  br i1 %12, label %13, label %17

13:                                               ; preds = %11
  %14 = tail call i32 @errcode(i32 noundef 50856066) #16
  %15 = select i1 %0, ptr @.str.1, ptr @.str.2
  %16 = tail call i32 (ptr, ...) @errmsg(ptr noundef nonnull @.str.4, i32 noundef %1, ptr noundef nonnull %15, i32 noundef 6) #16
  tail call void @errfinish(ptr noundef nonnull @.str.3, i32 noundef 84, ptr noundef nonnull @__func__.anytime_typmod_check) #16
  br label %17

17:                                               ; preds = %13, %11, %9
  %.0 = phi i32 [ %1, %9 ], [ 6, %11 ], [ 6, %13 ]
  ret i32 %.0
}